; Function Attrs: mustprogress nofree norecurse nosync nounwind willreturn memory(read, inaccessiblemem: none) uwtable
define noundef nonnull align 8 dereferenceable(2256) ptr @_ZNK10IListProxy4listEv(ptr nocapture noundef nonnull readonly align 8 dereferenceable(8) %0) local_unnamed_addr #2 align 2 {
  %2 = load ptr, ptr %0, align 8
  %3 = getelementptr inbounds i8, ptr %2, i64 8
  %4 = load i64, ptr %3, align 8
  %5 = load ptr, ptr %2, align 8
  %6 = getelementptr inbounds i8, ptr %5, i64 136
  %7 = getelementptr inbounds i8, ptr %5, i64 144
  %8 = load ptr, ptr %7, align 8
  %9 = load ptr, ptr %6, align 8
  %10 = ptrtoint ptr %8 to i64
  %11 = ptrtoint ptr %9 to i64
  %12 = sub i64 %10, %11
  %13 = sdiv exact i64 %12, 56
  %14 = icmp eq i64 %4, %13
  br i1 %14, label %15, label %18

15:                                               ; preds = %1
  %16 = getelementptr inbounds i8, ptr %5, i64 168
  %17 = load ptr, ptr %16, align 8
  br label %25

18:                                               ; preds = %1
  %19 = getelementptr inbounds i8, ptr %5, i64 112
  %20 = getelementptr inbounds %struct.gmx_molblock_t, ptr %9, i64 %4
  %21 = load i32, ptr %20, align 8
  %22 = sext i32 %21 to i64
  %23 = load ptr, ptr %19, align 8
  %24 = getelementptr inbounds %struct.gmx_moltype_t, ptr %23, i64 %22, i32 2
  br label %25

25:                                               ; preds = %18, %15
  %.0 = phi ptr [ %17, %15 ], [ %24, %18 ]
  ret ptr %.0
}